target datalayout = "e-m:e-p270:32:32-p271:32:32-p272:64:64-i64:64-i128:128-f80:128-n8:16:32:64-S128"
target triple = "x86_64-pc-linux-gnu"

%struct.Agdisc_s = type { ptr, ptr }

@G = internal global ptr null, align 8
@Ag_G_global = external global ptr, align 8
@aagin = external global ptr, align 8
@AgDefaultDisc = external global %struct.Agdisc_s, align 8
@Disc = internal global ptr null, align 8

; Function Attrs: nounwind uwtable
define ptr @agconcat(ptr noundef %0, ptr noundef %1, ptr noundef %2) #0 {
  %4 = alloca ptr, align 8
  %5 = alloca ptr, align 8
  %6 = alloca ptr, align 8
  store ptr %0, ptr %4, align 8, !tbaa !18
  store ptr %1, ptr %5, align 8, !tbaa !64
  store ptr %2, ptr %6, align 8, !tbaa !29
  %7 = load ptr, ptr %5, align 8, !tbaa !64
  store ptr %7, ptr @aagin, align 8, !tbaa !53
  %8 = load ptr, ptr %4, align 8, !tbaa !18
  store ptr %8, ptr @G, align 8, !tbaa !18
  store ptr null, ptr @Ag_G_global, align 8, !tbaa !18
  %9 = load ptr, ptr %6, align 8, !tbaa !29
  %10 = icmp ne ptr %9, null
  br i1 %10, label %11, label %13

11:                                               ; preds = %3
  %12 = load ptr, ptr %6, align 8, !tbaa !29
  br label %14

13:                                               ; preds = %3
  br label %14

14:                                               ; preds = %13, %11
  %15 = phi ptr [ %12, %11 ], [ @AgDefaultDisc, %13 ]
  store ptr %15, ptr @Disc, align 8, !tbaa !29
  %16 = load ptr, ptr @Disc, align 8, !tbaa !29
  %17 = load ptr, ptr %5, align 8, !tbaa !64
  call void @aglexinit(ptr noundef %16, ptr noundef %17)
  %18 = call i32 @aagparse()
  %19 = load ptr, ptr @Ag_G_global, align 8, !tbaa !18
  %20 = icmp eq ptr %19, null
  br i1 %20, label %21, label %22

21:                                               ; preds = %14
  call void @aglexbad()
  br label %22

22:                                               ; preds = %21, %14
  %23 = load ptr, ptr @Ag_G_global, align 8, !tbaa !18
  ret ptr %23
}

; Function Attrs: nounwind uwtable
define ptr @agread(ptr noundef %0, ptr noundef %1) #0 {
  %3 = alloca ptr, align 8
  %4 = alloca ptr, align 8
  store ptr %0, ptr %3, align 8, !tbaa !64
  store ptr %1, ptr %4, align 8, !tbaa !29
  %5 = load ptr, ptr %3, align 8, !tbaa !64
  %6 = load ptr, ptr %4, align 8, !tbaa !29
  %7 = call ptr @agconcat(ptr noundef null, ptr noundef %5, ptr noundef %6)
  ret ptr %7
}