; Function Attrs: nounwind uwtable
define ptr @agread(ptr noundef %0, ptr noundef %1) local_unnamed_addr #0 {
  store ptr %0, ptr @aagin, align 8, !tbaa !22
  store ptr null, ptr @G, align 8, !tbaa !19
  store ptr null, ptr @Ag_G_global, align 8, !tbaa !19
  %.not.i = icmp eq ptr %1, null
  %3 = select i1 %.not.i, ptr @AgDefaultDisc, ptr %1
  store ptr %3, ptr @Disc, align 8, !tbaa !20
  tail call void @aglexinit(ptr noundef nonnull %3, ptr noundef %0) #19
  %4 = tail call i32 @aagparse()
  %5 = load ptr, ptr @Ag_G_global, align 8, !tbaa !19
  %6 = icmp eq ptr %5, null
  br i1 %6, label %7, label %agconcat.exit

7:                                                ; preds = %2
  tail call void @aglexbad() #19
  %.pre.i = load ptr, ptr @Ag_G_global, align 8, !tbaa !19
  br label %agconcat.exit

agconcat.exit:                                    ; preds = %2, %7
  %8 = phi ptr [ %.pre.i, %7 ], [ %5, %2 ]
  ret ptr %8
}